target datalayout = "e-m:e-p270:32:32-p271:32:32-p272:64:64-i64:64-i128:128-f80:128-n8:16:32:64-S128"
target triple = "x86_64-pc-linux-gnu"

%struct._zval_struct = type { %union._zend_value, %union.anon, %union.anon.2 }
%union._zend_value = type { i64 }
%union.anon = type { i32 }
%union.anon.2 = type { i32 }
%struct._zend_array = type { %struct._zend_refcounted_h, %union.anon.4, i32, %union.anon.6, i32, i32, i32, i32, i64, ptr }
%struct._zend_refcounted_h = type { i32, %union.anon.3 }
%union.anon.3 = type { i32 }
%union.anon.4 = type { i32 }
%union.anon.6 = type { ptr }
%struct._sapi_globals_struct = type { ptr, %struct.sapi_request_info, %struct.sapi_headers_struct, i64, i8, i8, %struct.stat, ptr, ptr, ptr, i64, i32, i8, double, %struct._zend_array, %struct._zval_struct, %struct._zend_fcall_info_cache, %struct.sapi_request_parse_body_context }
%struct.sapi_request_info = type { ptr, ptr, ptr, i64, ptr, ptr, ptr, ptr, i8, i8, i8, ptr, ptr, ptr, ptr, ptr, ptr, ptr, i32, i32, ptr, i32 }
%struct.sapi_headers_struct = type { %struct._zend_llist, i32, i8, ptr, ptr }
%struct._zend_llist = type { ptr, ptr, i64, i64, ptr, i8, ptr }
%struct.stat = type { i64, i64, i64, i32, i32, i32, i32, i64, i64, i64, i64, %struct.timespec, %struct.timespec, %struct.timespec, [3 x i64] }
%struct.timespec = type { i64, i64 }
%struct._zend_fcall_info_cache = type { ptr, ptr, ptr, ptr, ptr }
%struct.sapi_request_parse_body_context = type { i8, [5 x %struct.anon.8] }
%struct.anon.8 = type { i8, i64 }
%struct.timeval = type { i64, i64 }
%struct.php_cli_server_client = type { ptr, i32, ptr, i32, ptr, %struct.php_http_parser, i8, ptr, ptr, i32, i64, %struct.php_cli_server_request, i8, %struct.php_cli_server_content_sender, i32 }
%struct.php_http_parser = type { i8, i8, i8, i8, i32, i64, i16, i16, i16, i8, i8, ptr }
%struct.php_cli_server_request = type { i32, i32, ptr, ptr, i64, ptr, i64, ptr, i64, ptr, i64, %struct._zend_array, %struct._zend_array, ptr, i64, ptr, i64, %struct.stat }
%struct.php_cli_server_content_sender = type { %struct.php_cli_server_buffer }
%struct.php_cli_server_buffer = type { ptr, ptr }
%struct.pollfd = type { i32, i16, i16 }

@sapi_globals = external global %struct._sapi_globals_struct, align 8
@__const.php_cli_server_client_send_through.tv = private unnamed_addr constant %struct.timeval { i64 10, i64 0 }, align 8

; Function Attrs: inlinehint nounwind uwtable
define internal i32 @php_tvtoto(ptr noundef %0) #12 {
  %2 = alloca i32, align 4
  %3 = alloca ptr, align 8
  store ptr %0, ptr %3, align 8, !tbaa !135
  %4 = load ptr, ptr %3, align 8, !tbaa !135
  %5 = icmp ne ptr %4, null
  br i1 %5, label %6, label %27

6:                                                ; preds = %1
  %7 = load ptr, ptr %3, align 8, !tbaa !135
  %8 = getelementptr inbounds nuw %struct.timeval, ptr %7, i32 0, i32 0
  %9 = load i64, ptr %8, align 8, !tbaa !141
  %10 = icmp sge i64 %9, 0
  br i1 %10, label %11, label %27

11:                                               ; preds = %6
  %12 = load ptr, ptr %3, align 8, !tbaa !135
  %13 = getelementptr inbounds nuw %struct.timeval, ptr %12, i32 0, i32 0
  %14 = load i64, ptr %13, align 8, !tbaa !141
  %15 = icmp sle i64 %14, 2147482
  br i1 %15, label %16, label %27

16:                                               ; preds = %11
  %17 = load ptr, ptr %3, align 8, !tbaa !135
  %18 = getelementptr inbounds nuw %struct.timeval, ptr %17, i32 0, i32 0
  %19 = load i64, ptr %18, align 8, !tbaa !141
  %20 = mul nsw i64 %19, 1000
  %21 = load ptr, ptr %3, align 8, !tbaa !135
  %22 = getelementptr inbounds nuw %struct.timeval, ptr %21, i32 0, i32 1
  %23 = load i64, ptr %22, align 8, !tbaa !143
  %24 = sdiv i64 %23, 1000
  %25 = add nsw i64 %20, %24
  %26 = trunc i64 %25 to i32
  store i32 %26, ptr %2, align 4
  br label %28

27:                                               ; preds = %11, %6, %1
  store i32 -1, ptr %2, align 4
  br label %28

28:                                               ; preds = %27, %16
  %29 = load i32, ptr %2, align 4
  ret i32 %29
}

; Function Attrs: inlinehint nounwind uwtable
define internal i32 @php_pollfd_for(i32 noundef %0, i32 noundef %1, ptr noundef %2) #12 {
  %4 = alloca i32, align 4
  %5 = alloca i32, align 4
  %6 = alloca i32, align 4
  %7 = alloca ptr, align 8
  %8 = alloca %struct.pollfd, align 4
  %9 = alloca i32, align 4
  %10 = alloca i32, align 4
  store i32 %0, ptr %5, align 4, !tbaa !117
  store i32 %1, ptr %6, align 4, !tbaa !117
  store ptr %2, ptr %7, align 8, !tbaa !135
  call void @llvm.lifetime.start.p0(i64 8, ptr %8) #20
  call void @llvm.lifetime.start.p0(i64 4, ptr %9) #20
  %11 = load i32, ptr %5, align 4, !tbaa !117
  %12 = getelementptr inbounds nuw %struct.pollfd, ptr %8, i32 0, i32 0
  store i32 %11, ptr %12, align 4, !tbaa !137
  %13 = load i32, ptr %6, align 4, !tbaa !117
  %14 = trunc i32 %13 to i16
  %15 = getelementptr inbounds nuw %struct.pollfd, ptr %8, i32 0, i32 1
  store i16 %14, ptr %15, align 4, !tbaa !139
  %16 = getelementptr inbounds nuw %struct.pollfd, ptr %8, i32 0, i32 2
  store i16 0, ptr %16, align 2, !tbaa !140
  %17 = load ptr, ptr %7, align 8, !tbaa !135
  %18 = call i32 @php_tvtoto(ptr noundef %17)
  %19 = call i32 @poll(ptr noundef %8, i64 noundef 1, i32 noundef %18)
  store i32 %19, ptr %9, align 4, !tbaa !117
  %20 = load i32, ptr %9, align 4, !tbaa !117
  %21 = icmp sgt i32 %20, 0
  br i1 %21, label %22, label %26

22:                                               ; preds = %3
  %23 = getelementptr inbounds nuw %struct.pollfd, ptr %8, i32 0, i32 2
  %24 = load i16, ptr %23, align 2, !tbaa !140
  %25 = sext i16 %24 to i32
  store i32 %25, ptr %4, align 4
  store i32 1, ptr %10, align 4
  br label %28

26:                                               ; preds = %3
  %27 = load i32, ptr %9, align 4, !tbaa !117
  store i32 %27, ptr %4, align 4
  store i32 1, ptr %10, align 4
  br label %28

28:                                               ; preds = %26, %22
  call void @llvm.lifetime.end.p0(i64 4, ptr %9) #20
  call void @llvm.lifetime.end.p0(i64 8, ptr %8) #20
  %29 = load i32, ptr %4, align 4
  ret i32 %29
}

; Function Attrs: nounwind uwtable
define internal i64 @php_cli_server_client_send_through(ptr noundef %0, ptr noundef %1, i64 noundef %2) #0 {
  %4 = alloca i64, align 8
  %5 = alloca ptr, align 8
  %6 = alloca ptr, align 8
  %7 = alloca i64, align 8
  %8 = alloca %struct.timeval, align 8
  %9 = alloca i64, align 8
  %10 = alloca i64, align 8
  %11 = alloca i32, align 4
  %12 = alloca i32, align 4
  %13 = alloca i32, align 4
  store ptr %0, ptr %5, align 8, !tbaa !60
  store ptr %1, ptr %6, align 8, !tbaa !67
  store i64 %2, ptr %7, align 8, !tbaa !68
  call void @llvm.lifetime.start.p0(i64 16, ptr %8) #20
  call void @llvm.memcpy.p0.p0.i64(ptr align 8 %8, ptr align 8 @__const.php_cli_server_client_send_through.tv, i64 16, i1 false)
  call void @llvm.lifetime.start.p0(i64 8, ptr %9) #20
  %14 = load i64, ptr %7, align 8, !tbaa !68
  store i64 %14, ptr %9, align 8, !tbaa !68
  br label %15

15:                                               ; preds = %55, %3
  call void @llvm.lifetime.start.p0(i64 8, ptr %10) #20
  %16 = load ptr, ptr %5, align 8, !tbaa !60
  %17 = getelementptr inbounds nuw %struct.php_cli_server_client, ptr %16, i32 0, i32 1
  %18 = load i32, ptr %17, align 8, !tbaa !74
  %19 = load ptr, ptr %6, align 8, !tbaa !67
  %20 = load i64, ptr %7, align 8, !tbaa !68
  %21 = getelementptr inbounds nuw i8, ptr %19, i64 %20
  %22 = load i64, ptr %9, align 8, !tbaa !68
  %23 = sub i64 0, %22
  %24 = getelementptr inbounds i8, ptr %21, i64 %23
  %25 = load i64, ptr %9, align 8, !tbaa !68
  %26 = call i64 @send(i32 noundef %18, ptr noundef %24, i64 noundef %25, i32 noundef 0)
  store i64 %26, ptr %10, align 8, !tbaa !68
  %27 = load i64, ptr %10, align 8, !tbaa !68
  %28 = icmp slt i64 %27, 0
  br i1 %28, label %29, label %48

29:                                               ; preds = %15
  call void @llvm.lifetime.start.p0(i64 4, ptr %11) #20
  %30 = call ptr @__errno_location() #23
  %31 = load i32, ptr %30, align 4, !tbaa !117
  store i32 %31, ptr %11, align 4, !tbaa !117
  %32 = load i32, ptr %11, align 4, !tbaa !117
  %33 = icmp eq i32 %32, 11
  br i1 %33, label %34, label %45

34:                                               ; preds = %29
  call void @llvm.lifetime.start.p0(i64 4, ptr %12) #20
  %35 = load ptr, ptr %5, align 8, !tbaa !60
  %36 = getelementptr inbounds nuw %struct.php_cli_server_client, ptr %35, i32 0, i32 1
  %37 = load i32, ptr %36, align 8, !tbaa !74
  %38 = call i32 @php_pollfd_for(i32 noundef %37, i32 noundef 4, ptr noundef %8)
  store i32 %38, ptr %12, align 4, !tbaa !117
  %39 = load i32, ptr %12, align 4, !tbaa !117
  %40 = icmp sgt i32 %39, 0
  br i1 %40, label %41, label %42

41:                                               ; preds = %34
  store i32 3, ptr %13, align 4
  br label %44

42:                                               ; preds = %34
  call void @php_handle_aborted_connection()
  %43 = load i64, ptr %9, align 8, !tbaa !68
  store i64 %43, ptr %4, align 8
  store i32 1, ptr %13, align 4
  br label %44

44:                                               ; preds = %42, %41
  call void @llvm.lifetime.end.p0(i64 4, ptr %12) #20
  br label %47

45:                                               ; preds = %29
  call void @php_handle_aborted_connection()
  %46 = load i64, ptr %9, align 8, !tbaa !68
  store i64 %46, ptr %4, align 8
  store i32 1, ptr %13, align 4
  br label %47

47:                                               ; preds = %45, %44
  call void @llvm.lifetime.end.p0(i64 4, ptr %11) #20
  br label %52

48:                                               ; preds = %15
  %49 = load i64, ptr %10, align 8, !tbaa !68
  %50 = load i64, ptr %9, align 8, !tbaa !68
  %51 = sub nsw i64 %50, %49
  store i64 %51, ptr %9, align 8, !tbaa !68
  store i32 0, ptr %13, align 4
  br label %52

52:                                               ; preds = %48, %47
  call void @llvm.lifetime.end.p0(i64 8, ptr %10) #20
  %53 = load i32, ptr %13, align 4
  switch i32 %53, label %60 [
    i32 0, label %54
    i32 3, label %55
  ]

54:                                               ; preds = %52
  br label %55

55:                                               ; preds = %54, %52
  %56 = load i64, ptr %9, align 8, !tbaa !68
  %57 = icmp sgt i64 %56, 0
  br i1 %57, label %15, label %58

58:                                               ; preds = %55
  %59 = load i64, ptr %7, align 8, !tbaa !68
  store i64 %59, ptr %4, align 8
  store i32 1, ptr %13, align 4
  br label %60

60:                                               ; preds = %58, %52
  call void @llvm.lifetime.end.p0(i64 8, ptr %9) #20
  call void @llvm.lifetime.end.p0(i64 16, ptr %8) #20
  %61 = load i64, ptr %4, align 8
  ret i64 %61
}

; Function Attrs: nounwind uwtable
define internal i64 @sapi_cli_server_ub_write(ptr noundef %0, i64 noundef %1) #0 {
  %3 = alloca i64, align 8
  %4 = alloca ptr, align 8
  %5 = alloca i64, align 8
  %6 = alloca ptr, align 8
  %7 = alloca i32, align 4
  store ptr %0, ptr %4, align 8, !tbaa !67
  store i64 %1, ptr %5, align 8, !tbaa !68
  call void @llvm.lifetime.start.p0(i64 8, ptr %6) #20
  %8 = load ptr, ptr @sapi_globals, align 8, !tbaa !45
  store ptr %8, ptr %6, align 8, !tbaa !60
  %9 = load ptr, ptr %6, align 8, !tbaa !60
  %10 = icmp ne ptr %9, null
  br i1 %10, label %12, label %11

11:                                               ; preds = %2
  store i64 0, ptr %3, align 8
  store i32 1, ptr %7, align 4
  br label %17

12:                                               ; preds = %2
  %13 = load ptr, ptr %6, align 8, !tbaa !60
  %14 = load ptr, ptr %4, align 8, !tbaa !67
  %15 = load i64, ptr %5, align 8, !tbaa !68
  %16 = call i64 @php_cli_server_client_send_through(ptr noundef %13, ptr noundef %14, i64 noundef %15)
  store i64 %16, ptr %3, align 8
  store i32 1, ptr %7, align 4
  br label %17

17:                                               ; preds = %12, %11
  call void @llvm.lifetime.end.p0(i64 8, ptr %6) #20
  %18 = load i64, ptr %3, align 8
  ret i64 %18
}