; Function Attrs: nounwind uwtable
define internal noundef i64 @sapi_cli_server_ub_write(ptr noundef %0, i64 noundef %1) #0 {
  %3 = alloca %struct.pollfd, align 4
  %4 = load ptr, ptr @sapi_globals, align 8, !tbaa !44
  %.not = icmp eq ptr %4, null
  br i1 %.not, label %php_cli_server_client_send_through.exit, label %5

5:                                                ; preds = %2
  %6 = getelementptr inbounds nuw i8, ptr %4, i64 8
  %7 = getelementptr inbounds nuw i8, ptr %0, i64 %1
  %8 = getelementptr inbounds nuw i8, ptr %3, i64 4
  %9 = getelementptr inbounds nuw i8, ptr %3, i64 6
  br label %10

10:                                               ; preds = %28, %5
  %.020.i = phi i64 [ %1, %5 ], [ %.121.i, %28 ]
  %11 = load i32, ptr %6, align 8, !tbaa !64
  %12 = sub i64 0, %.020.i
  %13 = getelementptr inbounds i8, ptr %7, i64 %12
  %14 = call i64 @send(i32 noundef %11, ptr noundef %13, i64 noundef %.020.i, i32 noundef 0) #29
  %15 = icmp slt i64 %14, 0
  br i1 %15, label %16, label %26

16:                                               ; preds = %10
  %17 = tail call ptr @__errno_location() #32
  %18 = load i32, ptr %17, align 4, !tbaa !74
  %19 = icmp eq i32 %18, 11
  br i1 %19, label %php_pollfd_for.exit.i, label %.thread.sink.split.i

php_pollfd_for.exit.i:                            ; preds = %16
  %20 = load i32, ptr %6, align 8, !tbaa !64
  call void @llvm.lifetime.start.p0(i64 8, ptr nonnull %3) #29
  store i32 %20, ptr %3, align 4, !tbaa !75
  store i16 4, ptr %8, align 4, !tbaa !77
  store i16 0, ptr %9, align 2, !tbaa !78
  %21 = call i32 @poll(ptr noundef nonnull %3, i64 noundef 1, i32 noundef 10000) #29
  %22 = icmp sgt i32 %21, 0
  %23 = load i16, ptr %9, align 2
  call void @llvm.lifetime.end.p0(i64 8, ptr nonnull %3) #29
  %24 = icmp sgt i16 %23, 0
  %25 = select i1 %22, i1 %24, i1 false
  br i1 %25, label %28, label %.thread.sink.split.i

26:                                               ; preds = %10
  %27 = sub nsw i64 %.020.i, %14
  br label %28

28:                                               ; preds = %26, %php_pollfd_for.exit.i
  %.121.i = phi i64 [ %27, %26 ], [ %.020.i, %php_pollfd_for.exit.i ]
  %29 = icmp sgt i64 %.121.i, 0
  br i1 %29, label %10, label %php_cli_server_client_send_through.exit

.thread.sink.split.i:                             ; preds = %php_pollfd_for.exit.i, %16
  call void @php_handle_aborted_connection() #29
  br label %php_cli_server_client_send_through.exit

php_cli_server_client_send_through.exit:          ; preds = %28, %.thread.sink.split.i, %2
  %.0 = phi i64 [ 0, %2 ], [ %.020.i, %.thread.sink.split.i ], [ %1, %28 ]
  ret i64 %.0
}